; Function Attrs: mustprogress ssp uwtable
define hidden void @_ZN6open3d1t2io22pybind_io_declarationsERN8pybind117module_E(ptr noundef nonnull align 8 dereferenceable(8) %0) local_unnamed_addr #5 personality ptr @__gxx_personality_v0 {
  %2 = alloca %"class.pybind11::module_", align 8
  call void @llvm.lifetime.start.p0(i64 8, ptr nonnull %2) #28
  call void @_ZN8pybind117module_13def_submoduleEPKcS2_(ptr dead_on_unwind nonnull writable sret(%"class.pybind11::module_") align 8 %2, ptr noundef nonnull align 8 dereferenceable(8) %0, ptr noundef nonnull @.str, ptr noundef nonnull @.str.3)
  invoke void @_ZN6open3d1t2io28pybind_class_io_declarationsERN8pybind117module_E(ptr noundef nonnull align 8 dereferenceable(8) %2)
          to label %3 unwind label %16

3:                                                ; preds = %1
  invoke void @_ZN6open3d1t2io26pybind_sensor_declarationsERN8pybind117module_E(ptr noundef nonnull align 8 dereferenceable(8) %2)
          to label %4 unwind label %16

4:                                                ; preds = %3
  %5 = load ptr, ptr %2, align 8, !tbaa !112
  %.not.i.i.i = icmp eq ptr %5, null
  br i1 %.not.i.i.i, label %_ZN8pybind116objectD2Ev.exit, label %6

6:                                                ; preds = %4
  %7 = load i64, ptr %5, align 8, !tbaa !111
  %8 = and i64 %7, 2147483648
  %.not2.i.i.i = icmp eq i64 %8, 0
  br i1 %.not2.i.i.i, label %9, label %_ZN8pybind116objectD2Ev.exit

9:                                                ; preds = %6
  %10 = add nsw i64 %7, -1
  store i64 %10, ptr %5, align 8, !tbaa !111
  %11 = icmp eq i64 %10, 0
  br i1 %11, label %12, label %_ZN8pybind116objectD2Ev.exit

12:                                               ; preds = %9
  invoke void @_Py_Dealloc(ptr noundef nonnull %5)
          to label %_ZN8pybind116objectD2Ev.exit unwind label %13

13:                                               ; preds = %12
  %14 = landingpad { ptr, i32 }
          catch ptr null
  %15 = extractvalue { ptr, i32 } %14, 0
  call void @__clang_call_terminate(ptr %15) #29
  unreachable

_ZN8pybind116objectD2Ev.exit:                     ; preds = %4, %6, %9, %12
  call void @llvm.lifetime.end.p0(i64 8, ptr nonnull %2) #28
  ret void

16:                                               ; preds = %3, %1
  %17 = landingpad { ptr, i32 }
          cleanup
  call void @_ZN8pybind116objectD2Ev(ptr noundef nonnull align 8 dereferenceable(8) %2) #28
  call void @llvm.lifetime.end.p0(i64 8, ptr nonnull %2) #28
  resume { ptr, i32 } %17
}